target datalayout = "e-m:e-p270:32:32-p271:32:32-p272:64:64-i64:64-i128:128-f80:128-n8:16:32:64-S128"
target triple = "x86_64-pc-linux-gnu"

%struct.AVFilterContext = type { ptr, ptr, ptr, ptr, ptr, i32, ptr, ptr, i32, ptr, ptr, i32, i32, ptr, ptr, ptr, ptr, i32, ptr, i32, i32 }
%struct.RemovelogoContext = type { ptr, ptr, ptr, i32, i32, i32, ptr, %struct.FFBoundingBox, ptr, %struct.FFBoundingBox }
%struct.FFBoundingBox = type { i32, i32, i32, i32 }
%struct.AVFilterLink = type { ptr, ptr, ptr, ptr, i32, i32, i32, i32, %struct.AVRational, i32, i32, i32, %struct.AVChannelLayout, %struct.AVRational, ptr, i32, %struct.AVFilterFormatsConfig, %struct.AVFilterFormatsConfig }
%struct.AVChannelLayout = type { i32, i32, %union.anon.1, ptr }
%union.anon.1 = type { i64 }
%struct.AVRational = type { i32, i32 }
%struct.AVFilterFormatsConfig = type { ptr, ptr, ptr, ptr, ptr }
%struct.AVFrame = type { [8 x ptr], [8 x i32], ptr, i32, i32, i32, i32, i32, %struct.AVRational, i64, i64, %struct.AVRational, i32, ptr, i32, i32, [8 x ptr], ptr, i32, ptr, i32, i32, i32, i32, i32, i32, i32, i64, ptr, i32, ptr, ptr, i64, i64, i64, i64, ptr, %struct.AVChannelLayout, i64 }

; Function Attrs: nounwind uwtable
define internal i32 @filter_frame(ptr noundef %0, ptr noundef %1) #1 {
  %3 = alloca i32, align 4
  %4 = alloca ptr, align 8
  %5 = alloca ptr, align 8
  %6 = alloca ptr, align 8
  %7 = alloca ptr, align 8
  %8 = alloca ptr, align 8
  %9 = alloca i32, align 4
  %10 = alloca i32, align 4
  store ptr %0, ptr %4, align 8, !tbaa !55
  store ptr %1, ptr %5, align 8, !tbaa !57
  call void @llvm.lifetime.start.p0(i64 8, ptr %6) #4
  %11 = load ptr, ptr %4, align 8, !tbaa !55
  %12 = getelementptr inbounds nuw %struct.AVFilterLink, ptr %11, i32 0, i32 2
  %13 = load ptr, ptr %12, align 8, !tbaa !59
  %14 = getelementptr inbounds nuw %struct.AVFilterContext, ptr %13, i32 0, i32 9
  %15 = load ptr, ptr %14, align 8, !tbaa !9
  store ptr %15, ptr %6, align 8, !tbaa !22
  call void @llvm.lifetime.start.p0(i64 8, ptr %7) #4
  %16 = load ptr, ptr %4, align 8, !tbaa !55
  %17 = getelementptr inbounds nuw %struct.AVFilterLink, ptr %16, i32 0, i32 2
  %18 = load ptr, ptr %17, align 8, !tbaa !59
  %19 = getelementptr inbounds nuw %struct.AVFilterContext, ptr %18, i32 0, i32 7
  %20 = load ptr, ptr %19, align 8, !tbaa !67
  %21 = getelementptr inbounds ptr, ptr %20, i64 0
  %22 = load ptr, ptr %21, align 8, !tbaa !55
  store ptr %22, ptr %7, align 8, !tbaa !55
  call void @llvm.lifetime.start.p0(i64 8, ptr %8) #4
  call void @llvm.lifetime.start.p0(i64 4, ptr %9) #4
  store i32 0, ptr %9, align 4, !tbaa !24
  %23 = load ptr, ptr %5, align 8, !tbaa !57
  %24 = call i32 @av_frame_is_writable(ptr noundef %23)
  %25 = icmp ne i32 %24, 0
  br i1 %25, label %26, label %28

26:                                               ; preds = %2
  store i32 1, ptr %9, align 4, !tbaa !24
  %27 = load ptr, ptr %5, align 8, !tbaa !57
  store ptr %27, ptr %8, align 8, !tbaa !57
  br label %44

28:                                               ; preds = %2
  %29 = load ptr, ptr %7, align 8, !tbaa !55
  %30 = load ptr, ptr %7, align 8, !tbaa !55
  %31 = getelementptr inbounds nuw %struct.AVFilterLink, ptr %30, i32 0, i32 6
  %32 = load i32, ptr %31, align 8, !tbaa !68
  %33 = load ptr, ptr %7, align 8, !tbaa !55
  %34 = getelementptr inbounds nuw %struct.AVFilterLink, ptr %33, i32 0, i32 7
  %35 = load i32, ptr %34, align 4, !tbaa !69
  %36 = call ptr @ff_get_video_buffer(ptr noundef %29, i32 noundef %32, i32 noundef %35)
  store ptr %36, ptr %8, align 8, !tbaa !57
  %37 = load ptr, ptr %8, align 8, !tbaa !57
  %38 = icmp ne ptr %37, null
  br i1 %38, label %40, label %39

39:                                               ; preds = %28
  call void @av_frame_free(ptr noundef %5)
  store i32 -12, ptr %3, align 4
  store i32 1, ptr %10, align 4
  br label %160

40:                                               ; preds = %28
  %41 = load ptr, ptr %8, align 8, !tbaa !57
  %42 = load ptr, ptr %5, align 8, !tbaa !57
  %43 = call i32 @av_frame_copy_props(ptr noundef %41, ptr noundef %42)
  br label %44

44:                                               ; preds = %40, %26
  %45 = load ptr, ptr %6, align 8, !tbaa !22
  %46 = getelementptr inbounds nuw %struct.RemovelogoContext, ptr %45, i32 0, i32 2
  %47 = load ptr, ptr %46, align 8, !tbaa !44
  %48 = load ptr, ptr %5, align 8, !tbaa !57
  %49 = getelementptr inbounds nuw %struct.AVFrame, ptr %48, i32 0, i32 0
  %50 = getelementptr inbounds [8 x ptr], ptr %49, i64 0, i64 0
  %51 = load ptr, ptr %50, align 8, !tbaa !70
  %52 = load ptr, ptr %5, align 8, !tbaa !57
  %53 = getelementptr inbounds nuw %struct.AVFrame, ptr %52, i32 0, i32 1
  %54 = getelementptr inbounds [8 x i32], ptr %53, i64 0, i64 0
  %55 = load i32, ptr %54, align 8, !tbaa !24
  %56 = load ptr, ptr %8, align 8, !tbaa !57
  %57 = getelementptr inbounds nuw %struct.AVFrame, ptr %56, i32 0, i32 0
  %58 = getelementptr inbounds [8 x ptr], ptr %57, i64 0, i64 0
  %59 = load ptr, ptr %58, align 8, !tbaa !70
  %60 = load ptr, ptr %8, align 8, !tbaa !57
  %61 = getelementptr inbounds nuw %struct.AVFrame, ptr %60, i32 0, i32 1
  %62 = getelementptr inbounds [8 x i32], ptr %61, i64 0, i64 0
  %63 = load i32, ptr %62, align 8, !tbaa !24
  %64 = load ptr, ptr %6, align 8, !tbaa !22
  %65 = getelementptr inbounds nuw %struct.RemovelogoContext, ptr %64, i32 0, i32 6
  %66 = load ptr, ptr %65, align 8, !tbaa !32
  %67 = load ptr, ptr %4, align 8, !tbaa !55
  %68 = getelementptr inbounds nuw %struct.AVFilterLink, ptr %67, i32 0, i32 6
  %69 = load i32, ptr %68, align 8, !tbaa !68
  %70 = load ptr, ptr %4, align 8, !tbaa !55
  %71 = getelementptr inbounds nuw %struct.AVFilterLink, ptr %70, i32 0, i32 6
  %72 = load i32, ptr %71, align 8, !tbaa !68
  %73 = load ptr, ptr %4, align 8, !tbaa !55
  %74 = getelementptr inbounds nuw %struct.AVFilterLink, ptr %73, i32 0, i32 7
  %75 = load i32, ptr %74, align 4, !tbaa !69
  %76 = load i32, ptr %9, align 4, !tbaa !24
  %77 = load ptr, ptr %6, align 8, !tbaa !22
  %78 = getelementptr inbounds nuw %struct.RemovelogoContext, ptr %77, i32 0, i32 7
  call void @blur_image(ptr noundef %47, ptr noundef %51, i32 noundef %55, ptr noundef %59, i32 noundef %63, ptr noundef %66, i32 noundef %69, i32 noundef %72, i32 noundef %75, i32 noundef %76, ptr noundef %78)
  %79 = load ptr, ptr %6, align 8, !tbaa !22
  %80 = getelementptr inbounds nuw %struct.RemovelogoContext, ptr %79, i32 0, i32 2
  %81 = load ptr, ptr %80, align 8, !tbaa !44
  %82 = load ptr, ptr %5, align 8, !tbaa !57
  %83 = getelementptr inbounds nuw %struct.AVFrame, ptr %82, i32 0, i32 0
  %84 = getelementptr inbounds [8 x ptr], ptr %83, i64 0, i64 1
  %85 = load ptr, ptr %84, align 8, !tbaa !70
  %86 = load ptr, ptr %5, align 8, !tbaa !57
  %87 = getelementptr inbounds nuw %struct.AVFrame, ptr %86, i32 0, i32 1
  %88 = getelementptr inbounds [8 x i32], ptr %87, i64 0, i64 1
  %89 = load i32, ptr %88, align 4, !tbaa !24
  %90 = load ptr, ptr %8, align 8, !tbaa !57
  %91 = getelementptr inbounds nuw %struct.AVFrame, ptr %90, i32 0, i32 0
  %92 = getelementptr inbounds [8 x ptr], ptr %91, i64 0, i64 1
  %93 = load ptr, ptr %92, align 8, !tbaa !70
  %94 = load ptr, ptr %8, align 8, !tbaa !57
  %95 = getelementptr inbounds nuw %struct.AVFrame, ptr %94, i32 0, i32 1
  %96 = getelementptr inbounds [8 x i32], ptr %95, i64 0, i64 1
  %97 = load i32, ptr %96, align 4, !tbaa !24
  %98 = load ptr, ptr %6, align 8, !tbaa !22
  %99 = getelementptr inbounds nuw %struct.RemovelogoContext, ptr %98, i32 0, i32 8
  %100 = load ptr, ptr %99, align 8, !tbaa !33
  %101 = load ptr, ptr %4, align 8, !tbaa !55
  %102 = getelementptr inbounds nuw %struct.AVFilterLink, ptr %101, i32 0, i32 6
  %103 = load i32, ptr %102, align 8, !tbaa !68
  %104 = sdiv i32 %103, 2
  %105 = load ptr, ptr %4, align 8, !tbaa !55
  %106 = getelementptr inbounds nuw %struct.AVFilterLink, ptr %105, i32 0, i32 6
  %107 = load i32, ptr %106, align 8, !tbaa !68
  %108 = sdiv i32 %107, 2
  %109 = load ptr, ptr %4, align 8, !tbaa !55
  %110 = getelementptr inbounds nuw %struct.AVFilterLink, ptr %109, i32 0, i32 7
  %111 = load i32, ptr %110, align 4, !tbaa !69
  %112 = sdiv i32 %111, 2
  %113 = load i32, ptr %9, align 4, !tbaa !24
  %114 = load ptr, ptr %6, align 8, !tbaa !22
  %115 = getelementptr inbounds nuw %struct.RemovelogoContext, ptr %114, i32 0, i32 9
  call void @blur_image(ptr noundef %81, ptr noundef %85, i32 noundef %89, ptr noundef %93, i32 noundef %97, ptr noundef %100, i32 noundef %104, i32 noundef %108, i32 noundef %112, i32 noundef %113, ptr noundef %115)
  %116 = load ptr, ptr %6, align 8, !tbaa !22
  %117 = getelementptr inbounds nuw %struct.RemovelogoContext, ptr %116, i32 0, i32 2
  %118 = load ptr, ptr %117, align 8, !tbaa !44
  %119 = load ptr, ptr %5, align 8, !tbaa !57
  %120 = getelementptr inbounds nuw %struct.AVFrame, ptr %119, i32 0, i32 0
  %121 = getelementptr inbounds [8 x ptr], ptr %120, i64 0, i64 2
  %122 = load ptr, ptr %121, align 8, !tbaa !70
  %123 = load ptr, ptr %5, align 8, !tbaa !57
  %124 = getelementptr inbounds nuw %struct.AVFrame, ptr %123, i32 0, i32 1
  %125 = getelementptr inbounds [8 x i32], ptr %124, i64 0, i64 2
  %126 = load i32, ptr %125, align 8, !tbaa !24
  %127 = load ptr, ptr %8, align 8, !tbaa !57
  %128 = getelementptr inbounds nuw %struct.AVFrame, ptr %127, i32 0, i32 0
  %129 = getelementptr inbounds [8 x ptr], ptr %128, i64 0, i64 2
  %130 = load ptr, ptr %129, align 8, !tbaa !70
  %131 = load ptr, ptr %8, align 8, !tbaa !57
  %132 = getelementptr inbounds nuw %struct.AVFrame, ptr %131, i32 0, i32 1
  %133 = getelementptr inbounds [8 x i32], ptr %132, i64 0, i64 2
  %134 = load i32, ptr %133, align 8, !tbaa !24
  %135 = load ptr, ptr %6, align 8, !tbaa !22
  %136 = getelementptr inbounds nuw %struct.RemovelogoContext, ptr %135, i32 0, i32 8
  %137 = load ptr, ptr %136, align 8, !tbaa !33
  %138 = load ptr, ptr %4, align 8, !tbaa !55
  %139 = getelementptr inbounds nuw %struct.AVFilterLink, ptr %138, i32 0, i32 6
  %140 = load i32, ptr %139, align 8, !tbaa !68
  %141 = sdiv i32 %140, 2
  %142 = load ptr, ptr %4, align 8, !tbaa !55
  %143 = getelementptr inbounds nuw %struct.AVFilterLink, ptr %142, i32 0, i32 6
  %144 = load i32, ptr %143, align 8, !tbaa !68
  %145 = sdiv i32 %144, 2
  %146 = load ptr, ptr %4, align 8, !tbaa !55
  %147 = getelementptr inbounds nuw %struct.AVFilterLink, ptr %146, i32 0, i32 7
  %148 = load i32, ptr %147, align 4, !tbaa !69
  %149 = sdiv i32 %148, 2
  %150 = load i32, ptr %9, align 4, !tbaa !24
  %151 = load ptr, ptr %6, align 8, !tbaa !22
  %152 = getelementptr inbounds nuw %struct.RemovelogoContext, ptr %151, i32 0, i32 9
  call void @blur_image(ptr noundef %118, ptr noundef %122, i32 noundef %126, ptr noundef %130, i32 noundef %134, ptr noundef %137, i32 noundef %141, i32 noundef %145, i32 noundef %149, i32 noundef %150, ptr noundef %152)
  %153 = load i32, ptr %9, align 4, !tbaa !24
  %154 = icmp ne i32 %153, 0
  br i1 %154, label %156, label %155

155:                                              ; preds = %44
  call void @av_frame_free(ptr noundef %5)
  br label %156

156:                                              ; preds = %155, %44
  %157 = load ptr, ptr %7, align 8, !tbaa !55
  %158 = load ptr, ptr %8, align 8, !tbaa !57
  %159 = call i32 @ff_filter_frame(ptr noundef %157, ptr noundef %158)
  store i32 %159, ptr %3, align 4
  store i32 1, ptr %10, align 4
  br label %160

160:                                              ; preds = %156, %39
  call void @llvm.lifetime.end.p0(i64 4, ptr %9) #4
  call void @llvm.lifetime.end.p0(i64 8, ptr %8) #4
  call void @llvm.lifetime.end.p0(i64 8, ptr %7) #4
  call void @llvm.lifetime.end.p0(i64 8, ptr %6) #4
  %161 = load i32, ptr %3, align 4
  ret i32 %161
}