; Function Attrs: nounwind uwtable
define internal i32 @filter_frame(ptr noundef readonly captures(none) %0, ptr noundef %1) #1 {
  %3 = alloca ptr, align 8
  store ptr %1, ptr %3, align 8, !tbaa !54
  %4 = getelementptr inbounds nuw i8, ptr %0, i64 16
  %5 = load ptr, ptr %4, align 8, !tbaa !56
  %6 = getelementptr inbounds nuw i8, ptr %5, i64 72
  %7 = load ptr, ptr %6, align 8, !tbaa !4
  %8 = getelementptr inbounds nuw i8, ptr %5, i64 56
  %9 = load ptr, ptr %8, align 8, !tbaa !65
  %10 = load ptr, ptr %9, align 8, !tbaa !66
  %11 = tail call i32 @av_frame_is_writable(ptr noundef %1) #6
  %.not = icmp eq i32 %11, 0
  br i1 %.not, label %12, label %21

12:                                               ; preds = %2
  %13 = getelementptr inbounds nuw i8, ptr %10, i64 40
  %14 = load i32, ptr %13, align 8, !tbaa !68
  %15 = getelementptr inbounds nuw i8, ptr %10, i64 44
  %16 = load i32, ptr %15, align 4, !tbaa !69
  %17 = tail call ptr @ff_get_video_buffer(ptr noundef %10, i32 noundef %14, i32 noundef %16) #6
  %.not40 = icmp eq ptr %17, null
  br i1 %.not40, label %18, label %19

18:                                               ; preds = %12
  call void @av_frame_free(ptr noundef nonnull %3) #6
  br label %70

19:                                               ; preds = %12
  %20 = tail call i32 @av_frame_copy_props(ptr noundef nonnull %17, ptr noundef %1) #6
  br label %21

21:                                               ; preds = %2, %19
  %.037 = phi ptr [ %17, %19 ], [ %1, %2 ]
  %.0 = phi i32 [ 0, %19 ], [ 1, %2 ]
  %22 = getelementptr inbounds nuw i8, ptr %7, i64 16
  %23 = load ptr, ptr %22, align 8, !tbaa !43
  %24 = load ptr, ptr %1, align 8, !tbaa !26
  %25 = getelementptr inbounds nuw i8, ptr %1, i64 64
  %26 = load i32, ptr %25, align 8, !tbaa !25
  %27 = load ptr, ptr %.037, align 8, !tbaa !26
  %28 = getelementptr inbounds nuw i8, ptr %.037, i64 64
  %29 = load i32, ptr %28, align 8, !tbaa !25
  %30 = getelementptr inbounds nuw i8, ptr %7, i64 40
  %31 = load ptr, ptr %30, align 8, !tbaa !29
  %32 = getelementptr inbounds nuw i8, ptr %0, i64 40
  %33 = load i32, ptr %32, align 8, !tbaa !68
  %34 = getelementptr inbounds nuw i8, ptr %0, i64 44
  %35 = load i32, ptr %34, align 4, !tbaa !69
  %36 = getelementptr inbounds nuw i8, ptr %7, i64 48
  tail call fastcc void @blur_image(ptr noundef %23, ptr noundef %24, i32 noundef %26, ptr noundef %27, i32 noundef %29, ptr noundef %31, i32 noundef %33, i32 noundef %33, i32 noundef %35, i32 noundef %.0, ptr noundef nonnull %36)
  %37 = load ptr, ptr %22, align 8, !tbaa !43
  %38 = getelementptr inbounds nuw i8, ptr %1, i64 8
  %39 = load ptr, ptr %38, align 8, !tbaa !26
  %40 = getelementptr inbounds nuw i8, ptr %1, i64 68
  %41 = load i32, ptr %40, align 4, !tbaa !25
  %42 = getelementptr inbounds nuw i8, ptr %.037, i64 8
  %43 = load ptr, ptr %42, align 8, !tbaa !26
  %44 = getelementptr inbounds nuw i8, ptr %.037, i64 68
  %45 = load i32, ptr %44, align 4, !tbaa !25
  %46 = getelementptr inbounds nuw i8, ptr %7, i64 64
  %47 = load ptr, ptr %46, align 8, !tbaa !30
  %48 = load i32, ptr %32, align 8, !tbaa !68
  %49 = sdiv i32 %48, 2
  %50 = load i32, ptr %34, align 4, !tbaa !69
  %51 = sdiv i32 %50, 2
  %52 = getelementptr inbounds nuw i8, ptr %7, i64 72
  tail call fastcc void @blur_image(ptr noundef %37, ptr noundef %39, i32 noundef %41, ptr noundef %43, i32 noundef %45, ptr noundef %47, i32 noundef %49, i32 noundef %49, i32 noundef %51, i32 noundef %.0, ptr noundef nonnull %52)
  %53 = load ptr, ptr %22, align 8, !tbaa !43
  %54 = getelementptr inbounds nuw i8, ptr %1, i64 16
  %55 = load ptr, ptr %54, align 8, !tbaa !26
  %56 = getelementptr inbounds nuw i8, ptr %1, i64 72
  %57 = load i32, ptr %56, align 8, !tbaa !25
  %58 = getelementptr inbounds nuw i8, ptr %.037, i64 16
  %59 = load ptr, ptr %58, align 8, !tbaa !26
  %60 = getelementptr inbounds nuw i8, ptr %.037, i64 72
  %61 = load i32, ptr %60, align 8, !tbaa !25
  %62 = load ptr, ptr %46, align 8, !tbaa !30
  %63 = load i32, ptr %32, align 8, !tbaa !68
  %64 = sdiv i32 %63, 2
  %65 = load i32, ptr %34, align 4, !tbaa !69
  %66 = sdiv i32 %65, 2
  tail call fastcc void @blur_image(ptr noundef %53, ptr noundef %55, i32 noundef %57, ptr noundef %59, i32 noundef %61, ptr noundef %62, i32 noundef %64, i32 noundef %64, i32 noundef %66, i32 noundef %.0, ptr noundef nonnull %52)
  br i1 %.not, label %67, label %68

67:                                               ; preds = %21
  call void @av_frame_free(ptr noundef nonnull %3) #6
  br label %68

68:                                               ; preds = %67, %21
  %69 = call i32 @ff_filter_frame(ptr noundef %10, ptr noundef nonnull %.037) #6
  br label %70

70:                                               ; preds = %68, %18
  %.038 = phi i32 [ %69, %68 ], [ -12, %18 ]
  ret i32 %.038
}